target datalayout = "e-m:e-p270:32:32-p271:32:32-p272:64:64-i64:64-i128:128-f80:128-n8:16:32:64-S128"
target triple = "x86_64-pc-linux-gnu"

%"class.pybind11::object" = type { %"class.pybind11::handle" }
%"class.pybind11::handle" = type { ptr }
%"class.pybind11::module_" = type { %"class.pybind11::object" }
%"class.pybind11::class_" = type { %"class.pybind11::detail::generic_type" }
%"class.pybind11::detail::generic_type" = type { %"class.pybind11::object" }
%"class.pybind11::class_.9" = type { %"class.pybind11::detail::generic_type" }
%"class.pybind11::class_.10" = type { %"class.pybind11::detail::generic_type" }
%"class.pybind11::class_.11" = type { %"class.pybind11::detail::generic_type" }

@.str = private unnamed_addr constant [4 x i8] c"rpc\00", align 1
@.str.6 = private unnamed_addr constant [16 x i8] c"_ConnectionBase\00", align 1
@.str.7 = private unnamed_addr constant [11 x i8] c"Connection\00", align 1
@.str.8 = private unnamed_addr constant [59 x i8] c"\0AThe default connection class which uses a ZeroMQ socket.\0A\00", align 1
@.str.9 = private unnamed_addr constant [17 x i8] c"BufferConnection\00", align 1
@.str.10 = private unnamed_addr constant [43 x i8] c"\0AA connection writing to a memory buffer.\0A\00", align 1
@.str.11 = private unnamed_addr constant [15 x i8] c"_DummyReceiver\00", align 1
@.str.12 = private unnamed_addr constant [69 x i8] c"Dummy receiver for the server side receiving requests from a client.\00", align 1

; Function Attrs: mustprogress ssp uwtable
define hidden void @_ZN6open3d2io23pybind_rpc_declarationsERN8pybind117module_E(ptr noundef nonnull align 8 dereferenceable(8) %0) #3 personality ptr @__gxx_personality_v0 {
  %2 = alloca ptr, align 8
  %3 = alloca %"class.pybind11::module_", align 8
  %4 = alloca %"class.pybind11::class_", align 8
  %5 = alloca %"class.pybind11::handle", align 8
  %6 = alloca ptr, align 8
  %7 = alloca i32, align 4
  %8 = alloca %"class.pybind11::class_.9", align 8
  %9 = alloca %"class.pybind11::handle", align 8
  %10 = alloca %"class.pybind11::class_.10", align 8
  %11 = alloca %"class.pybind11::handle", align 8
  %12 = alloca %"class.pybind11::class_.11", align 8
  %13 = alloca %"class.pybind11::handle", align 8
  store ptr %0, ptr %2, align 8, !tbaa !184
  call void @llvm.lifetime.start.p0(i64 8, ptr %3) #7
  %14 = load ptr, ptr %2, align 8, !tbaa !184
  call void @_ZN8pybind117module_13def_submoduleEPKcS2_(ptr dead_on_unwind writable sret(%"class.pybind11::module_") align 8 %3, ptr noundef nonnull align 8 dereferenceable(8) %14, ptr noundef @.str, ptr noundef null)
  call void @llvm.memcpy.p0.p0.i64(ptr align 8 %5, ptr align 8 %3, i64 8, i1 false)
  %15 = getelementptr inbounds nuw %"class.pybind11::handle", ptr %5, i32 0, i32 0
  %16 = load ptr, ptr %15, align 8
  invoke void @_ZN8pybind116class_IN6open3d2io3rpc14ConnectionBaseEJSt10shared_ptrIS4_EEEC2IJEEENS_6handleEPKcDpRKT_(ptr noundef nonnull align 8 dereferenceable(8) %4, ptr %16, ptr noundef @.str.6)
          to label %17 unwind label %27

17:                                               ; preds = %1
  call void @_ZN8pybind116objectD2Ev(ptr noundef nonnull align 8 dereferenceable(8) %4) #7
  call void @llvm.memcpy.p0.p0.i64(ptr align 8 %9, ptr align 8 %3, i64 8, i1 false)
  %18 = getelementptr inbounds nuw %"class.pybind11::handle", ptr %9, i32 0, i32 0
  %19 = load ptr, ptr %18, align 8
  invoke void @_ZN8pybind116class_IN6open3d2io3rpc10ConnectionEJSt10shared_ptrIS4_ENS3_14ConnectionBaseEEEC2IJA59_cEEENS_6handleEPKcDpRKT_(ptr noundef nonnull align 8 dereferenceable(8) %8, ptr %19, ptr noundef @.str.7, ptr noundef nonnull align 1 dereferenceable(59) @.str.8)
          to label %20 unwind label %27

20:                                               ; preds = %17
  call void @_ZN8pybind116objectD2Ev(ptr noundef nonnull align 8 dereferenceable(8) %8) #7
  call void @llvm.memcpy.p0.p0.i64(ptr align 8 %11, ptr align 8 %3, i64 8, i1 false)
  %21 = getelementptr inbounds nuw %"class.pybind11::handle", ptr %11, i32 0, i32 0
  %22 = load ptr, ptr %21, align 8
  invoke void @_ZN8pybind116class_IN6open3d2io3rpc16BufferConnectionEJSt10shared_ptrIS4_ENS3_14ConnectionBaseEEEC2IJA43_cEEENS_6handleEPKcDpRKT_(ptr noundef nonnull align 8 dereferenceable(8) %10, ptr %22, ptr noundef @.str.9, ptr noundef nonnull align 1 dereferenceable(43) @.str.10)
          to label %23 unwind label %27

23:                                               ; preds = %20
  call void @_ZN8pybind116objectD2Ev(ptr noundef nonnull align 8 dereferenceable(8) %10) #7
  call void @llvm.memcpy.p0.p0.i64(ptr align 8 %13, ptr align 8 %3, i64 8, i1 false)
  %24 = getelementptr inbounds nuw %"class.pybind11::handle", ptr %13, i32 0, i32 0
  %25 = load ptr, ptr %24, align 8
  invoke void @_ZN8pybind116class_IN6open3d2io3rpc13DummyReceiverEJSt10shared_ptrIS4_EEEC2IJA69_cEEENS_6handleEPKcDpRKT_(ptr noundef nonnull align 8 dereferenceable(8) %12, ptr %25, ptr noundef @.str.11, ptr noundef nonnull align 1 dereferenceable(69) @.str.12)
          to label %26 unwind label %27

26:                                               ; preds = %23
  call void @_ZN8pybind116objectD2Ev(ptr noundef nonnull align 8 dereferenceable(8) %12) #7
  call void @_ZN8pybind116objectD2Ev(ptr noundef nonnull align 8 dereferenceable(8) %3) #7
  call void @llvm.lifetime.end.p0(i64 8, ptr %3) #7
  ret void

27:                                               ; preds = %23, %20, %17, %1
  %28 = landingpad { ptr, i32 }
          cleanup
  %29 = extractvalue { ptr, i32 } %28, 0
  store ptr %29, ptr %6, align 8
  %30 = extractvalue { ptr, i32 } %28, 1
  store i32 %30, ptr %7, align 4
  call void @_ZN8pybind116objectD2Ev(ptr noundef nonnull align 8 dereferenceable(8) %3) #7
  call void @llvm.lifetime.end.p0(i64 8, ptr %3) #7
  br label %31

31:                                               ; preds = %27
  %32 = load ptr, ptr %6, align 8
  %33 = load i32, ptr %7, align 4
  %34 = insertvalue { ptr, i32 } poison, ptr %32, 0
  %35 = insertvalue { ptr, i32 } %34, i32 %33, 1
  resume { ptr, i32 } %35
}