; Function Attrs: mustprogress ssp uwtable
define hidden void @_ZN6open3d2io23pybind_rpc_declarationsERN8pybind117module_E(ptr noundef nonnull align 8 dereferenceable(8) %0) local_unnamed_addr #7 personality ptr @__gxx_personality_v0 {
  %2 = alloca %"class.pybind11::module_", align 8
  %3 = alloca %"class.pybind11::class_", align 8
  %4 = alloca %"class.pybind11::class_.9", align 8
  %5 = alloca %"class.pybind11::class_.10", align 8
  %6 = alloca %"class.pybind11::class_.11", align 8
  call void @llvm.lifetime.start.p0(i64 8, ptr nonnull %2) #34
  call void @_ZN8pybind117module_13def_submoduleEPKcS2_(ptr dead_on_unwind nonnull writable sret(%"class.pybind11::module_") align 8 %2, ptr noundef nonnull align 8 dereferenceable(8) %0, ptr noundef nonnull @.str, ptr noundef null)
  %.sroa.03.0.copyload = load ptr, ptr %2, align 8
  invoke void @_ZN8pybind116class_IN6open3d2io3rpc14ConnectionBaseEJSt10shared_ptrIS4_EEEC2IJEEENS_6handleEPKcDpRKT_(ptr noundef nonnull align 8 dereferenceable(8) %3, ptr %.sroa.03.0.copyload, ptr noundef nonnull @.str.6)
          to label %7 unwind label %66

7:                                                ; preds = %1
  %8 = load ptr, ptr %3, align 8, !tbaa !156
  %.not.i.i.i = icmp eq ptr %8, null
  br i1 %.not.i.i.i, label %_ZN8pybind116objectD2Ev.exit, label %9

9:                                                ; preds = %7
  %10 = load i64, ptr %8, align 8, !tbaa !155
  %11 = and i64 %10, 2147483648
  %.not2.i.i.i = icmp eq i64 %11, 0
  br i1 %.not2.i.i.i, label %12, label %_ZN8pybind116objectD2Ev.exit

12:                                               ; preds = %9
  %13 = add nsw i64 %10, -1
  store i64 %13, ptr %8, align 8, !tbaa !155
  %14 = icmp eq i64 %13, 0
  br i1 %14, label %15, label %_ZN8pybind116objectD2Ev.exit

15:                                               ; preds = %12
  invoke void @_Py_Dealloc(ptr noundef nonnull %8)
          to label %_ZN8pybind116objectD2Ev.exit unwind label %16

16:                                               ; preds = %15
  %17 = landingpad { ptr, i32 }
          catch ptr null
  %18 = extractvalue { ptr, i32 } %17, 0
  call void @__clang_call_terminate(ptr %18) #35
  unreachable

_ZN8pybind116objectD2Ev.exit:                     ; preds = %7, %9, %12, %15
  %.sroa.02.0.copyload = load ptr, ptr %2, align 8
  invoke void @_ZN8pybind116class_IN6open3d2io3rpc10ConnectionEJSt10shared_ptrIS4_ENS3_14ConnectionBaseEEEC2IJA59_cEEENS_6handleEPKcDpRKT_(ptr noundef nonnull align 8 dereferenceable(8) %4, ptr %.sroa.02.0.copyload, ptr noundef nonnull @.str.7, ptr noundef nonnull align 1 dereferenceable(59) @.str.8)
          to label %19 unwind label %66

19:                                               ; preds = %_ZN8pybind116objectD2Ev.exit
  %20 = load ptr, ptr %4, align 8, !tbaa !156
  %.not.i.i.i5 = icmp eq ptr %20, null
  br i1 %.not.i.i.i5, label %_ZN8pybind116objectD2Ev.exit7, label %21

21:                                               ; preds = %19
  %22 = load i64, ptr %20, align 8, !tbaa !155
  %23 = and i64 %22, 2147483648
  %.not2.i.i.i6 = icmp eq i64 %23, 0
  br i1 %.not2.i.i.i6, label %24, label %_ZN8pybind116objectD2Ev.exit7

24:                                               ; preds = %21
  %25 = add nsw i64 %22, -1
  store i64 %25, ptr %20, align 8, !tbaa !155
  %26 = icmp eq i64 %25, 0
  br i1 %26, label %27, label %_ZN8pybind116objectD2Ev.exit7

27:                                               ; preds = %24
  invoke void @_Py_Dealloc(ptr noundef nonnull %20)
          to label %_ZN8pybind116objectD2Ev.exit7 unwind label %28

28:                                               ; preds = %27
  %29 = landingpad { ptr, i32 }
          catch ptr null
  %30 = extractvalue { ptr, i32 } %29, 0
  call void @__clang_call_terminate(ptr %30) #35
  unreachable

_ZN8pybind116objectD2Ev.exit7:                    ; preds = %19, %21, %24, %27
  %.sroa.01.0.copyload = load ptr, ptr %2, align 8
  invoke void @_ZN8pybind116class_IN6open3d2io3rpc16BufferConnectionEJSt10shared_ptrIS4_ENS3_14ConnectionBaseEEEC2IJA43_cEEENS_6handleEPKcDpRKT_(ptr noundef nonnull align 8 dereferenceable(8) %5, ptr %.sroa.01.0.copyload, ptr noundef nonnull @.str.9, ptr noundef nonnull align 1 dereferenceable(43) @.str.10)
          to label %31 unwind label %66

31:                                               ; preds = %_ZN8pybind116objectD2Ev.exit7
  %32 = load ptr, ptr %5, align 8, !tbaa !156
  %.not.i.i.i8 = icmp eq ptr %32, null
  br i1 %.not.i.i.i8, label %_ZN8pybind116objectD2Ev.exit10, label %33

33:                                               ; preds = %31
  %34 = load i64, ptr %32, align 8, !tbaa !155
  %35 = and i64 %34, 2147483648
  %.not2.i.i.i9 = icmp eq i64 %35, 0
  br i1 %.not2.i.i.i9, label %36, label %_ZN8pybind116objectD2Ev.exit10

36:                                               ; preds = %33
  %37 = add nsw i64 %34, -1
  store i64 %37, ptr %32, align 8, !tbaa !155
  %38 = icmp eq i64 %37, 0
  br i1 %38, label %39, label %_ZN8pybind116objectD2Ev.exit10

39:                                               ; preds = %36
  invoke void @_Py_Dealloc(ptr noundef nonnull %32)
          to label %_ZN8pybind116objectD2Ev.exit10 unwind label %40

40:                                               ; preds = %39
  %41 = landingpad { ptr, i32 }
          catch ptr null
  %42 = extractvalue { ptr, i32 } %41, 0
  call void @__clang_call_terminate(ptr %42) #35
  unreachable

_ZN8pybind116objectD2Ev.exit10:                   ; preds = %31, %33, %36, %39
  %.sroa.0.0.copyload = load ptr, ptr %2, align 8
  invoke void @_ZN8pybind116class_IN6open3d2io3rpc13DummyReceiverEJSt10shared_ptrIS4_EEEC2IJA69_cEEENS_6handleEPKcDpRKT_(ptr noundef nonnull align 8 dereferenceable(8) %6, ptr %.sroa.0.0.copyload, ptr noundef nonnull @.str.11, ptr noundef nonnull align 1 dereferenceable(69) @.str.12)
          to label %43 unwind label %66

43:                                               ; preds = %_ZN8pybind116objectD2Ev.exit10
  %44 = load ptr, ptr %6, align 8, !tbaa !156
  %.not.i.i.i11 = icmp eq ptr %44, null
  br i1 %.not.i.i.i11, label %_ZN8pybind116objectD2Ev.exit13, label %45

45:                                               ; preds = %43
  %46 = load i64, ptr %44, align 8, !tbaa !155
  %47 = and i64 %46, 2147483648
  %.not2.i.i.i12 = icmp eq i64 %47, 0
  br i1 %.not2.i.i.i12, label %48, label %_ZN8pybind116objectD2Ev.exit13

48:                                               ; preds = %45
  %49 = add nsw i64 %46, -1
  store i64 %49, ptr %44, align 8, !tbaa !155
  %50 = icmp eq i64 %49, 0
  br i1 %50, label %51, label %_ZN8pybind116objectD2Ev.exit13

51:                                               ; preds = %48
  invoke void @_Py_Dealloc(ptr noundef nonnull %44)
          to label %_ZN8pybind116objectD2Ev.exit13 unwind label %52

52:                                               ; preds = %51
  %53 = landingpad { ptr, i32 }
          catch ptr null
  %54 = extractvalue { ptr, i32 } %53, 0
  call void @__clang_call_terminate(ptr %54) #35
  unreachable

_ZN8pybind116objectD2Ev.exit13:                   ; preds = %43, %45, %48, %51
  %55 = load ptr, ptr %2, align 8, !tbaa !156
  %.not.i.i.i14 = icmp eq ptr %55, null
  br i1 %.not.i.i.i14, label %_ZN8pybind116objectD2Ev.exit16, label %56

56:                                               ; preds = %_ZN8pybind116objectD2Ev.exit13
  %57 = load i64, ptr %55, align 8, !tbaa !155
  %58 = and i64 %57, 2147483648
  %.not2.i.i.i15 = icmp eq i64 %58, 0
  br i1 %.not2.i.i.i15, label %59, label %_ZN8pybind116objectD2Ev.exit16

59:                                               ; preds = %56
  %60 = add nsw i64 %57, -1
  store i64 %60, ptr %55, align 8, !tbaa !155
  %61 = icmp eq i64 %60, 0
  br i1 %61, label %62, label %_ZN8pybind116objectD2Ev.exit16

62:                                               ; preds = %59
  invoke void @_Py_Dealloc(ptr noundef nonnull %55)
          to label %_ZN8pybind116objectD2Ev.exit16 unwind label %63

63:                                               ; preds = %62
  %64 = landingpad { ptr, i32 }
          catch ptr null
  %65 = extractvalue { ptr, i32 } %64, 0
  call void @__clang_call_terminate(ptr %65) #35
  unreachable

_ZN8pybind116objectD2Ev.exit16:                   ; preds = %_ZN8pybind116objectD2Ev.exit13, %56, %59, %62
  call void @llvm.lifetime.end.p0(i64 8, ptr nonnull %2) #34
  ret void

66:                                               ; preds = %_ZN8pybind116objectD2Ev.exit10, %_ZN8pybind116objectD2Ev.exit7, %_ZN8pybind116objectD2Ev.exit, %1
  %67 = landingpad { ptr, i32 }
          cleanup
  call void @_ZN8pybind116objectD2Ev(ptr noundef nonnull align 8 dereferenceable(8) %2) #34
  call void @llvm.lifetime.end.p0(i64 8, ptr nonnull %2) #34
  resume { ptr, i32 } %67
}